target datalayout = "e-m:e-p270:32:32-p271:32:32-p272:64:64-i64:64-i128:128-f80:128-n8:16:32:64-S128"
target triple = "x86_64-pc-linux-gnu"

%"class.casadi::SharedObject" = type { ptr }
%"class.casadi::Slice" = type { i64, i64, i64 }
%"class.casadi::GetNonzeros" = type { %"class.casadi::MXNode" }
%"class.casadi::MXNode" = type { %"class.casadi::SharedObjectInternal", i64, %"class.std::vector.3", %"class.casadi::Sparsity" }
%"class.casadi::SharedObjectInternal" = type { ptr, i64, ptr }
%"class.std::vector.3" = type { %"struct.std::_Vector_base.4" }
%"struct.std::_Vector_base.4" = type { %"struct.std::_Vector_base<casadi::MX, std::allocator<casadi::MX>>::_Vector_impl" }
%"struct.std::_Vector_base<casadi::MX, std::allocator<casadi::MX>>::_Vector_impl" = type { %"struct.std::_Vector_base<casadi::MX, std::allocator<casadi::MX>>::_Vector_impl_data" }
%"struct.std::_Vector_base<casadi::MX, std::allocator<casadi::MX>>::_Vector_impl_data" = type { ptr, ptr, ptr }
%"class.casadi::Sparsity" = type { %"class.casadi::SharedObject" }
%"class.casadi::GetNonzerosSlice2" = type { %"class.casadi::GetNonzeros", %"class.casadi::Slice", %"class.casadi::Slice" }
%"class.casadi::SXElem" = type { ptr }

; Function Attrs: mustprogress uwtable
define linkonce_odr noundef i32 @_ZNK6casadi17GetNonzerosSlice28eval_genINS_6SXElemEEEiPKPKT_PKPS3_PxS8_(ptr noundef nonnull align 8 dereferenceable(112) %0, ptr noundef %1, ptr noundef %2, ptr noundef %3, ptr noundef %4) #4 comdat align 2 {
  %6 = alloca ptr, align 8
  %7 = alloca ptr, align 8
  %8 = alloca ptr, align 8
  %9 = alloca ptr, align 8
  %10 = alloca ptr, align 8
  %11 = alloca ptr, align 8
  %12 = alloca ptr, align 8
  %13 = alloca ptr, align 8
  %14 = alloca ptr, align 8
  store ptr %0, ptr %6, align 8
  store ptr %1, ptr %7, align 8
  store ptr %2, ptr %8, align 8
  store ptr %3, ptr %9, align 8
  store ptr %4, ptr %10, align 8
  %15 = load ptr, ptr %6, align 8
  %16 = load ptr, ptr %7, align 8
  %17 = getelementptr inbounds ptr, ptr %16, i64 0
  %18 = load ptr, ptr %17, align 8
  %19 = getelementptr inbounds %"class.casadi::GetNonzerosSlice2", ptr %15, i32 0, i32 2
  %20 = getelementptr inbounds %"class.casadi::Slice", ptr %19, i32 0, i32 0
  %21 = load i64, ptr %20, align 8
  %22 = getelementptr inbounds %"class.casadi::SXElem", ptr %18, i64 %21
  store ptr %22, ptr %11, align 8
  %23 = load ptr, ptr %7, align 8
  %24 = getelementptr inbounds ptr, ptr %23, i64 0
  %25 = load ptr, ptr %24, align 8
  %26 = getelementptr inbounds %"class.casadi::GetNonzerosSlice2", ptr %15, i32 0, i32 2
  %27 = getelementptr inbounds %"class.casadi::Slice", ptr %26, i32 0, i32 1
  %28 = load i64, ptr %27, align 8
  %29 = getelementptr inbounds %"class.casadi::SXElem", ptr %25, i64 %28
  store ptr %29, ptr %12, align 8
  %30 = load ptr, ptr %8, align 8
  %31 = getelementptr inbounds ptr, ptr %30, i64 0
  %32 = load ptr, ptr %31, align 8
  store ptr %32, ptr %13, align 8
  br label %33

33:                                               ; preds = %63, %5
  %34 = load ptr, ptr %11, align 8
  %35 = load ptr, ptr %12, align 8
  %36 = icmp ne ptr %34, %35
  br i1 %36, label %37, label %69

37:                                               ; preds = %33
  %38 = load ptr, ptr %11, align 8
  %39 = getelementptr inbounds %"class.casadi::GetNonzerosSlice2", ptr %15, i32 0, i32 1
  %40 = getelementptr inbounds %"class.casadi::Slice", ptr %39, i32 0, i32 0
  %41 = load i64, ptr %40, align 8
  %42 = getelementptr inbounds %"class.casadi::SXElem", ptr %38, i64 %41
  store ptr %42, ptr %14, align 8
  br label %43

43:                                               ; preds = %56, %37
  %44 = load ptr, ptr %14, align 8
  %45 = load ptr, ptr %11, align 8
  %46 = getelementptr inbounds %"class.casadi::GetNonzerosSlice2", ptr %15, i32 0, i32 1
  %47 = getelementptr inbounds %"class.casadi::Slice", ptr %46, i32 0, i32 1
  %48 = load i64, ptr %47, align 8
  %49 = getelementptr inbounds %"class.casadi::SXElem", ptr %45, i64 %48
  %50 = icmp ne ptr %44, %49
  br i1 %50, label %51, label %62

51:                                               ; preds = %43
  %52 = load ptr, ptr %14, align 8
  %53 = load ptr, ptr %13, align 8
  %54 = getelementptr inbounds %"class.casadi::SXElem", ptr %53, i32 1
  store ptr %54, ptr %13, align 8
  %55 = call noundef nonnull align 8 dereferenceable(8) ptr @_ZN6casadi6SXElemaSERKS0_(ptr noundef nonnull align 8 dereferenceable(8) %53, ptr noundef nonnull align 8 dereferenceable(8) %52)
  br label %56

56:                                               ; preds = %51
  %57 = getelementptr inbounds %"class.casadi::GetNonzerosSlice2", ptr %15, i32 0, i32 1
  %58 = getelementptr inbounds %"class.casadi::Slice", ptr %57, i32 0, i32 2
  %59 = load i64, ptr %58, align 8
  %60 = load ptr, ptr %14, align 8
  %61 = getelementptr inbounds %"class.casadi::SXElem", ptr %60, i64 %59
  store ptr %61, ptr %14, align 8
  br label %43, !llvm.loop !12

62:                                               ; preds = %43
  br label %63

63:                                               ; preds = %62
  %64 = getelementptr inbounds %"class.casadi::GetNonzerosSlice2", ptr %15, i32 0, i32 2
  %65 = getelementptr inbounds %"class.casadi::Slice", ptr %64, i32 0, i32 2
  %66 = load i64, ptr %65, align 8
  %67 = load ptr, ptr %11, align 8
  %68 = getelementptr inbounds %"class.casadi::SXElem", ptr %67, i64 %66
  store ptr %68, ptr %11, align 8
  br label %33, !llvm.loop !13

69:                                               ; preds = %33
  ret i32 0
}

; Function Attrs: mustprogress uwtable
define noundef i32 @_ZNK6casadi17GetNonzerosSlice27eval_sxEPPKNS_6SXElemEPPS1_PxS5_(ptr noundef nonnull align 8 dereferenceable(112) %0, ptr noundef %1, ptr noundef %2, ptr noundef %3, ptr noundef %4) unnamed_addr #4 align 2 {
  %6 = alloca ptr, align 8
  %7 = alloca ptr, align 8
  %8 = alloca ptr, align 8
  %9 = alloca ptr, align 8
  %10 = alloca ptr, align 8
  store ptr %0, ptr %6, align 8
  store ptr %1, ptr %7, align 8
  store ptr %2, ptr %8, align 8
  store ptr %3, ptr %9, align 8
  store ptr %4, ptr %10, align 8
  %11 = load ptr, ptr %6, align 8
  %12 = load ptr, ptr %7, align 8
  %13 = load ptr, ptr %8, align 8
  %14 = load ptr, ptr %9, align 8
  %15 = load ptr, ptr %10, align 8
  %16 = call noundef i32 @_ZNK6casadi17GetNonzerosSlice28eval_genINS_6SXElemEEEiPKPKT_PKPS3_PxS8_(ptr noundef nonnull align 8 dereferenceable(112) %11, ptr noundef %12, ptr noundef %13, ptr noundef %14, ptr noundef %15)
  ret i32 %16
}