; Function Attrs: mustprogress uwtable
define noundef i32 @_ZNK6casadi17GetNonzerosSlice27eval_sxEPPKNS_6SXElemEPPS1_PxS5_(ptr nocapture noundef nonnull readonly align 8 dereferenceable(112) %0, ptr nocapture noundef readonly %1, ptr nocapture noundef readonly %2, ptr nocapture readnone %3, ptr nocapture readnone %4) unnamed_addr #3 align 2 {
  %6 = load ptr, ptr %1, align 8
  %7 = getelementptr inbounds i8, ptr %0, i64 88
  %8 = load i64, ptr %7, align 8
  %9 = getelementptr inbounds i8, ptr %0, i64 96
  %10 = load i64, ptr %9, align 8
  %11 = getelementptr inbounds %"class.casadi::SXElem", ptr %6, i64 %10
  %.not19.i = icmp eq i64 %8, %10
  br i1 %.not19.i, label %_ZNK6casadi17GetNonzerosSlice28eval_genINS_6SXElemEEEiPKPKT_PKPS3_PxS8_.exit, label %.lr.ph23.i

.lr.ph23.i:                                       ; preds = %5
  %12 = getelementptr inbounds %"class.casadi::SXElem", ptr %6, i64 %8
  %13 = load ptr, ptr %2, align 8
  %14 = getelementptr inbounds i8, ptr %0, i64 64
  %15 = getelementptr inbounds i8, ptr %0, i64 72
  %16 = getelementptr inbounds i8, ptr %0, i64 80
  %17 = getelementptr inbounds i8, ptr %0, i64 104
  %.pre.i = load i64, ptr %15, align 8
  br label %18

18:                                               ; preds = %._crit_edge.i, %.lr.ph23.i
  %19 = phi i64 [ %.pre.i, %.lr.ph23.i ], [ %28, %._crit_edge.i ]
  %.01321.i = phi ptr [ %13, %.lr.ph23.i ], [ %.1.lcssa.i, %._crit_edge.i ]
  %.01420.i = phi ptr [ %12, %.lr.ph23.i ], [ %30, %._crit_edge.i ]
  %20 = load i64, ptr %14, align 8
  %.not1516.i = icmp eq i64 %20, %19
  br i1 %.not1516.i, label %._crit_edge.i, label %.lr.ph.preheader.i

.lr.ph.preheader.i:                               ; preds = %18
  %21 = getelementptr inbounds %"class.casadi::SXElem", ptr %.01420.i, i64 %20
  br label %.lr.ph.i

.lr.ph.i:                                         ; preds = %.lr.ph.i, %.lr.ph.preheader.i
  %.018.i = phi ptr [ %25, %.lr.ph.i ], [ %21, %.lr.ph.preheader.i ]
  %.117.i = phi ptr [ %22, %.lr.ph.i ], [ %.01321.i, %.lr.ph.preheader.i ]
  %22 = getelementptr inbounds i8, ptr %.117.i, i64 8
  %23 = tail call noundef nonnull align 8 dereferenceable(8) ptr @_ZN6casadi6SXElemaSERKS0_(ptr noundef nonnull align 8 dereferenceable(8) %.117.i, ptr noundef nonnull align 8 dereferenceable(8) %.018.i)
  %24 = load i64, ptr %16, align 8
  %25 = getelementptr inbounds %"class.casadi::SXElem", ptr %.018.i, i64 %24
  %26 = load i64, ptr %15, align 8
  %27 = getelementptr inbounds %"class.casadi::SXElem", ptr %.01420.i, i64 %26
  %.not15.i = icmp eq ptr %25, %27
  br i1 %.not15.i, label %._crit_edge.i, label %.lr.ph.i, !llvm.loop !15

._crit_edge.i:                                    ; preds = %.lr.ph.i, %18
  %28 = phi i64 [ %19, %18 ], [ %26, %.lr.ph.i ]
  %.1.lcssa.i = phi ptr [ %.01321.i, %18 ], [ %22, %.lr.ph.i ]
  %29 = load i64, ptr %17, align 8
  %30 = getelementptr inbounds %"class.casadi::SXElem", ptr %.01420.i, i64 %29
  %.not.i = icmp eq ptr %30, %11
  br i1 %.not.i, label %_ZNK6casadi17GetNonzerosSlice28eval_genINS_6SXElemEEEiPKPKT_PKPS3_PxS8_.exit, label %18, !llvm.loop !16

_ZNK6casadi17GetNonzerosSlice28eval_genINS_6SXElemEEEiPKPKT_PKPS3_PxS8_.exit: ; preds = %._crit_edge.i, %5
  ret i32 0
}